; Function Attrs: nofree nounwind memory(read, argmem: readwrite, inaccessiblemem: none) uwtable
define internal range(i32 0, 2) i32 @parse_max_fragment_len_mode(ptr noundef writeonly captures(none) %0, ptr noundef readonly captures(none) %1) #5 {
  br label %5

3:                                                ; preds = %5
  %4 = add nuw nsw i64 %.010.i, 1
  %exitcond.not.i = icmp eq i64 %4, 5
  br i1 %exitcond.not.i, label %parse_enum.exit.thread, label %5, !llvm.loop !57

5:                                                ; preds = %3, %2
  %.010.i = phi i64 [ 0, %2 ], [ %4, %3 ]
  %6 = getelementptr inbounds nuw %struct.test_enum, ptr @ssl_max_fragment_len_mode, i64 %.010.i
  %7 = load ptr, ptr %6, align 16, !tbaa !13
  %8 = tail call i32 @strcmp(ptr noundef nonnull dereferenceable(1) %7, ptr noundef nonnull readonly dereferenceable(1) %1) #9
  %9 = icmp eq i32 %8, 0
  br i1 %9, label %10, label %3

10:                                               ; preds = %5
  %11 = getelementptr inbounds nuw i8, ptr %6, i64 8
  %12 = load i32, ptr %11, align 8, !tbaa !6
  %13 = getelementptr inbounds nuw i8, ptr %0, i64 8
  store i32 %12, ptr %13, align 8, !tbaa !66
  br label %parse_enum.exit.thread

parse_enum.exit.thread:                           ; preds = %3, %10
  %.0 = phi i32 [ 1, %10 ], [ 0, %3 ]
  ret i32 %.0
}